target datalayout = "e-m:e-p270:32:32-p271:32:32-p272:64:64-i64:64-i128:128-f80:128-n8:16:32:64-S128"
target triple = "x86_64-pc-linux-gnu"

%struct.ossl_property_definition_st = type { i32, i32, i32, i8, %union.anon }
%union.anon = type { i64 }
%struct.ossl_property_list_st = type { i32, i8, [1 x %struct.ossl_property_definition_st] }

; Function Attrs: nounwind uwtable
define i32 @ossl_property_match_count(ptr noundef %0, ptr noundef %1) #0 {
  %3 = alloca i32, align 4
  %4 = alloca ptr, align 8
  %5 = alloca ptr, align 8
  %6 = alloca ptr, align 8
  %7 = alloca ptr, align 8
  %8 = alloca i32, align 4
  %9 = alloca i32, align 4
  %10 = alloca i32, align 4
  %11 = alloca i32, align 4
  %12 = alloca i32, align 4
  %13 = alloca i32, align 4
  store ptr %0, ptr %4, align 8, !tbaa !12
  store ptr %1, ptr %5, align 8, !tbaa !12
  call void @llvm.lifetime.start.p0(i64 8, ptr %6) #7
  %14 = load ptr, ptr %4, align 8, !tbaa !12
  %15 = getelementptr inbounds nuw %struct.ossl_property_list_st, ptr %14, i32 0, i32 2
  %16 = getelementptr inbounds [1 x %struct.ossl_property_definition_st], ptr %15, i64 0, i64 0
  store ptr %16, ptr %6, align 8, !tbaa !10
  call void @llvm.lifetime.start.p0(i64 8, ptr %7) #7
  %17 = load ptr, ptr %5, align 8, !tbaa !12
  %18 = getelementptr inbounds nuw %struct.ossl_property_list_st, ptr %17, i32 0, i32 2
  %19 = getelementptr inbounds [1 x %struct.ossl_property_definition_st], ptr %18, i64 0, i64 0
  store ptr %19, ptr %7, align 8, !tbaa !10
  call void @llvm.lifetime.start.p0(i64 4, ptr %8) #7
  store i32 0, ptr %8, align 4, !tbaa !17
  call void @llvm.lifetime.start.p0(i64 4, ptr %9) #7
  store i32 0, ptr %9, align 4, !tbaa !17
  call void @llvm.lifetime.start.p0(i64 4, ptr %10) #7
  store i32 0, ptr %10, align 4, !tbaa !17
  call void @llvm.lifetime.start.p0(i64 4, ptr %11) #7
  br label %20

20:                                               ; preds = %211, %135, %57, %34, %2
  %21 = load i32, ptr %8, align 4, !tbaa !17
  %22 = load ptr, ptr %4, align 8, !tbaa !12
  %23 = getelementptr inbounds nuw %struct.ossl_property_list_st, ptr %22, i32 0, i32 0
  %24 = load i32, ptr %23, align 8, !tbaa !38
  %25 = icmp slt i32 %21, %24
  br i1 %25, label %26, label %214

26:                                               ; preds = %20
  %27 = load ptr, ptr %6, align 8, !tbaa !10
  %28 = load i32, ptr %8, align 4, !tbaa !17
  %29 = sext i32 %28 to i64
  %30 = getelementptr inbounds %struct.ossl_property_definition_st, ptr %27, i64 %29
  %31 = getelementptr inbounds nuw %struct.ossl_property_definition_st, ptr %30, i32 0, i32 2
  %32 = load i32, ptr %31, align 8, !tbaa !19
  store i32 %32, ptr %11, align 4, !tbaa !17
  %33 = icmp eq i32 %32, 2
  br i1 %33, label %34, label %37

34:                                               ; preds = %26
  %35 = load i32, ptr %8, align 4, !tbaa !17
  %36 = add nsw i32 %35, 1
  store i32 %36, ptr %8, align 4, !tbaa !17
  br label %20, !llvm.loop !41

37:                                               ; preds = %26
  %38 = load i32, ptr %9, align 4, !tbaa !17
  %39 = load ptr, ptr %5, align 8, !tbaa !12
  %40 = getelementptr inbounds nuw %struct.ossl_property_list_st, ptr %39, i32 0, i32 0
  %41 = load i32, ptr %40, align 8, !tbaa !38
  %42 = icmp slt i32 %38, %41
  br i1 %42, label %43, label %138

43:                                               ; preds = %37
  %44 = load ptr, ptr %6, align 8, !tbaa !10
  %45 = load i32, ptr %8, align 4, !tbaa !17
  %46 = sext i32 %45 to i64
  %47 = getelementptr inbounds %struct.ossl_property_definition_st, ptr %44, i64 %46
  %48 = getelementptr inbounds nuw %struct.ossl_property_definition_st, ptr %47, i32 0, i32 0
  %49 = load i32, ptr %48, align 8, !tbaa !21
  %50 = load ptr, ptr %7, align 8, !tbaa !10
  %51 = load i32, ptr %9, align 4, !tbaa !17
  %52 = sext i32 %51 to i64
  %53 = getelementptr inbounds %struct.ossl_property_definition_st, ptr %50, i64 %52
  %54 = getelementptr inbounds nuw %struct.ossl_property_definition_st, ptr %53, i32 0, i32 0
  %55 = load i32, ptr %54, align 8, !tbaa !21
  %56 = icmp sgt i32 %49, %55
  br i1 %56, label %57, label %60

57:                                               ; preds = %43
  %58 = load i32, ptr %9, align 4, !tbaa !17
  %59 = add nsw i32 %58, 1
  store i32 %59, ptr %9, align 4, !tbaa !17
  br label %20, !llvm.loop !41

60:                                               ; preds = %43
  %61 = load ptr, ptr %6, align 8, !tbaa !10
  %62 = load i32, ptr %8, align 4, !tbaa !17
  %63 = sext i32 %62 to i64
  %64 = getelementptr inbounds %struct.ossl_property_definition_st, ptr %61, i64 %63
  %65 = getelementptr inbounds nuw %struct.ossl_property_definition_st, ptr %64, i32 0, i32 0
  %66 = load i32, ptr %65, align 8, !tbaa !21
  %67 = load ptr, ptr %7, align 8, !tbaa !10
  %68 = load i32, ptr %9, align 4, !tbaa !17
  %69 = sext i32 %68 to i64
  %70 = getelementptr inbounds %struct.ossl_property_definition_st, ptr %67, i64 %69
  %71 = getelementptr inbounds nuw %struct.ossl_property_definition_st, ptr %70, i32 0, i32 0
  %72 = load i32, ptr %71, align 8, !tbaa !21
  %73 = icmp eq i32 %66, %72
  br i1 %73, label %74, label %137

74:                                               ; preds = %60
  call void @llvm.lifetime.start.p0(i64 4, ptr %12) #7
  %75 = load ptr, ptr %6, align 8, !tbaa !10
  %76 = load i32, ptr %8, align 4, !tbaa !17
  %77 = sext i32 %76 to i64
  %78 = getelementptr inbounds %struct.ossl_property_definition_st, ptr %75, i64 %77
  %79 = getelementptr inbounds nuw %struct.ossl_property_definition_st, ptr %78, i32 0, i32 1
  %80 = load i32, ptr %79, align 4, !tbaa !22
  %81 = load ptr, ptr %7, align 8, !tbaa !10
  %82 = load i32, ptr %9, align 4, !tbaa !17
  %83 = sext i32 %82 to i64
  %84 = getelementptr inbounds %struct.ossl_property_definition_st, ptr %81, i64 %83
  %85 = getelementptr inbounds nuw %struct.ossl_property_definition_st, ptr %84, i32 0, i32 1
  %86 = load i32, ptr %85, align 4, !tbaa !22
  %87 = icmp eq i32 %80, %86
  br i1 %87, label %88, label %101

88:                                               ; preds = %74
  %89 = load ptr, ptr %6, align 8, !tbaa !10
  %90 = load i32, ptr %8, align 4, !tbaa !17
  %91 = sext i32 %90 to i64
  %92 = getelementptr inbounds %struct.ossl_property_definition_st, ptr %89, i64 %91
  %93 = getelementptr inbounds nuw %struct.ossl_property_definition_st, ptr %92, i32 0, i32 4
  %94 = load ptr, ptr %7, align 8, !tbaa !10
  %95 = load i32, ptr %9, align 4, !tbaa !17
  %96 = sext i32 %95 to i64
  %97 = getelementptr inbounds %struct.ossl_property_definition_st, ptr %94, i64 %96
  %98 = getelementptr inbounds nuw %struct.ossl_property_definition_st, ptr %97, i32 0, i32 4
  %99 = call i32 @memcmp(ptr noundef %93, ptr noundef %98, i64 noundef 8) #8
  %100 = icmp eq i32 %99, 0
  br label %101

101:                                              ; preds = %88, %74
  %102 = phi i1 [ false, %74 ], [ %100, %88 ]
  %103 = zext i1 %102 to i32
  store i32 %103, ptr %12, align 4, !tbaa !17
  %104 = load i32, ptr %12, align 4, !tbaa !17
  %105 = icmp ne i32 %104, 0
  br i1 %105, label %106, label %109

106:                                              ; preds = %101
  %107 = load i32, ptr %11, align 4, !tbaa !17
  %108 = icmp eq i32 %107, 0
  br i1 %108, label %115, label %109

109:                                              ; preds = %106, %101
  %110 = load i32, ptr %12, align 4, !tbaa !17
  %111 = icmp ne i32 %110, 0
  br i1 %111, label %118, label %112

112:                                              ; preds = %109
  %113 = load i32, ptr %11, align 4, !tbaa !17
  %114 = icmp eq i32 %113, 1
  br i1 %114, label %115, label %118

115:                                              ; preds = %112, %106
  %116 = load i32, ptr %10, align 4, !tbaa !17
  %117 = add nsw i32 %116, 1
  store i32 %117, ptr %10, align 4, !tbaa !17
  br label %130

118:                                              ; preds = %112, %109
  %119 = load ptr, ptr %6, align 8, !tbaa !10
  %120 = load i32, ptr %8, align 4, !tbaa !17
  %121 = sext i32 %120 to i64
  %122 = getelementptr inbounds %struct.ossl_property_definition_st, ptr %119, i64 %121
  %123 = getelementptr inbounds nuw %struct.ossl_property_definition_st, ptr %122, i32 0, i32 3
  %124 = load i8, ptr %123, align 4
  %125 = and i8 %124, 1
  %126 = zext i8 %125 to i32
  %127 = icmp ne i32 %126, 0
  br i1 %127, label %129, label %128

128:                                              ; preds = %118
  store i32 -1, ptr %3, align 4
  store i32 1, ptr %13, align 4
  br label %135

129:                                              ; preds = %118
  br label %130

130:                                              ; preds = %129, %115
  %131 = load i32, ptr %8, align 4, !tbaa !17
  %132 = add nsw i32 %131, 1
  store i32 %132, ptr %8, align 4, !tbaa !17
  %133 = load i32, ptr %9, align 4, !tbaa !17
  %134 = add nsw i32 %133, 1
  store i32 %134, ptr %9, align 4, !tbaa !17
  store i32 2, ptr %13, align 4
  br label %135, !llvm.loop !41

135:                                              ; preds = %130, %128
  call void @llvm.lifetime.end.p0(i64 4, ptr %12) #7
  %136 = load i32, ptr %13, align 4
  switch i32 %136, label %216 [
    i32 2, label %20
  ]

137:                                              ; preds = %60
  br label %138

138:                                              ; preds = %137, %37
  %139 = load ptr, ptr %6, align 8, !tbaa !10
  %140 = load i32, ptr %8, align 4, !tbaa !17
  %141 = sext i32 %140 to i64
  %142 = getelementptr inbounds %struct.ossl_property_definition_st, ptr %139, i64 %141
  %143 = getelementptr inbounds nuw %struct.ossl_property_definition_st, ptr %142, i32 0, i32 1
  %144 = load i32, ptr %143, align 4, !tbaa !22
  %145 = icmp eq i32 %144, 2
  br i1 %145, label %146, label %165

146:                                              ; preds = %138
  %147 = load i32, ptr %11, align 4, !tbaa !17
  %148 = icmp eq i32 %147, 1
  br i1 %148, label %149, label %152

149:                                              ; preds = %146
  %150 = load i32, ptr %10, align 4, !tbaa !17
  %151 = add nsw i32 %150, 1
  store i32 %151, ptr %10, align 4, !tbaa !17
  br label %164

152:                                              ; preds = %146
  %153 = load ptr, ptr %6, align 8, !tbaa !10
  %154 = load i32, ptr %8, align 4, !tbaa !17
  %155 = sext i32 %154 to i64
  %156 = getelementptr inbounds %struct.ossl_property_definition_st, ptr %153, i64 %155
  %157 = getelementptr inbounds nuw %struct.ossl_property_definition_st, ptr %156, i32 0, i32 3
  %158 = load i8, ptr %157, align 4
  %159 = and i8 %158, 1
  %160 = zext i8 %159 to i32
  %161 = icmp ne i32 %160, 0
  br i1 %161, label %163, label %162

162:                                              ; preds = %152
  store i32 -1, ptr %3, align 4
  store i32 1, ptr %13, align 4
  br label %216

163:                                              ; preds = %152
  br label %164

164:                                              ; preds = %163, %149
  br label %211

165:                                              ; preds = %138
  %166 = load ptr, ptr %6, align 8, !tbaa !10
  %167 = load i32, ptr %8, align 4, !tbaa !17
  %168 = sext i32 %167 to i64
  %169 = getelementptr inbounds %struct.ossl_property_definition_st, ptr %166, i64 %168
  %170 = getelementptr inbounds nuw %struct.ossl_property_definition_st, ptr %169, i32 0, i32 1
  %171 = load i32, ptr %170, align 4, !tbaa !22
  %172 = icmp ne i32 %171, 0
  br i1 %172, label %195, label %173

173:                                              ; preds = %165
  %174 = load i32, ptr %11, align 4, !tbaa !17
  %175 = icmp eq i32 %174, 0
  br i1 %175, label %176, label %184

176:                                              ; preds = %173
  %177 = load ptr, ptr %6, align 8, !tbaa !10
  %178 = load i32, ptr %8, align 4, !tbaa !17
  %179 = sext i32 %178 to i64
  %180 = getelementptr inbounds %struct.ossl_property_definition_st, ptr %177, i64 %179
  %181 = getelementptr inbounds nuw %struct.ossl_property_definition_st, ptr %180, i32 0, i32 4
  %182 = load i32, ptr %181, align 8, !tbaa !16
  %183 = icmp ne i32 %182, 2
  br i1 %183, label %195, label %184

184:                                              ; preds = %176, %173
  %185 = load i32, ptr %11, align 4, !tbaa !17
  %186 = icmp eq i32 %185, 1
  br i1 %186, label %187, label %207

187:                                              ; preds = %184
  %188 = load ptr, ptr %6, align 8, !tbaa !10
  %189 = load i32, ptr %8, align 4, !tbaa !17
  %190 = sext i32 %189 to i64
  %191 = getelementptr inbounds %struct.ossl_property_definition_st, ptr %188, i64 %190
  %192 = getelementptr inbounds nuw %struct.ossl_property_definition_st, ptr %191, i32 0, i32 4
  %193 = load i32, ptr %192, align 8, !tbaa !16
  %194 = icmp eq i32 %193, 2
  br i1 %194, label %195, label %207

195:                                              ; preds = %187, %176, %165
  %196 = load ptr, ptr %6, align 8, !tbaa !10
  %197 = load i32, ptr %8, align 4, !tbaa !17
  %198 = sext i32 %197 to i64
  %199 = getelementptr inbounds %struct.ossl_property_definition_st, ptr %196, i64 %198
  %200 = getelementptr inbounds nuw %struct.ossl_property_definition_st, ptr %199, i32 0, i32 3
  %201 = load i8, ptr %200, align 4
  %202 = and i8 %201, 1
  %203 = zext i8 %202 to i32
  %204 = icmp ne i32 %203, 0
  br i1 %204, label %206, label %205

205:                                              ; preds = %195
  store i32 -1, ptr %3, align 4
  store i32 1, ptr %13, align 4
  br label %216

206:                                              ; preds = %195
  br label %210

207:                                              ; preds = %187, %184
  %208 = load i32, ptr %10, align 4, !tbaa !17
  %209 = add nsw i32 %208, 1
  store i32 %209, ptr %10, align 4, !tbaa !17
  br label %210

210:                                              ; preds = %207, %206
  br label %211

211:                                              ; preds = %210, %164
  %212 = load i32, ptr %8, align 4, !tbaa !17
  %213 = add nsw i32 %212, 1
  store i32 %213, ptr %8, align 4, !tbaa !17
  br label %20, !llvm.loop !41

214:                                              ; preds = %20
  %215 = load i32, ptr %10, align 4, !tbaa !17
  store i32 %215, ptr %3, align 4
  store i32 1, ptr %13, align 4
  br label %216

216:                                              ; preds = %214, %205, %162, %135
  call void @llvm.lifetime.end.p0(i64 4, ptr %11) #7
  call void @llvm.lifetime.end.p0(i64 4, ptr %10) #7
  call void @llvm.lifetime.end.p0(i64 4, ptr %9) #7
  call void @llvm.lifetime.end.p0(i64 4, ptr %8) #7
  call void @llvm.lifetime.end.p0(i64 8, ptr %7) #7
  call void @llvm.lifetime.end.p0(i64 8, ptr %6) #7
  %217 = load i32, ptr %3, align 4
  ret i32 %217
}