; Function Attrs: nofree nounwind memory(argmem: read) uwtable
define i32 @ossl_property_match_count(ptr noundef readonly captures(none) %0, ptr noundef readonly captures(none) %1) local_unnamed_addr #4 {
  %3 = getelementptr inbounds nuw i8, ptr %0, i64 8
  %4 = getelementptr inbounds nuw i8, ptr %1, i64 8
  %5 = load i32, ptr %0, align 8, !tbaa !25
  %6 = icmp sgt i32 %5, 0
  br i1 %6, label %.lr.ph.lr.ph.preheader, label %.thread

.lr.ph.lr.ph.preheader:                           ; preds = %2
  %7 = zext nneg i32 %5 to i64
  br label %.lr.ph.lr.ph

.lr.ph.lr.ph:                                     ; preds = %.lr.ph.lr.ph.preheader, %.outer.backedge
  %indvars.iv125 = phi i64 [ 0, %.lr.ph.lr.ph.preheader ], [ %indvars.iv.next126, %.outer.backedge ]
  %.059.ph106 = phi i32 [ 0, %.lr.ph.lr.ph.preheader ], [ %.059.ph.be, %.outer.backedge ]
  %.061.ph105 = phi i32 [ 0, %.lr.ph.lr.ph.preheader ], [ %.061.ph.be, %.outer.backedge ]
  %8 = getelementptr inbounds nuw %struct.ossl_property_definition_st, ptr %4, i64 %indvars.iv125
  br label %.lr.ph

.lr.ph:                                           ; preds = %.lr.ph.lr.ph, %.outer80
  %.059.ph82101 = phi i32 [ %.059.ph106, %.lr.ph.lr.ph ], [ %74, %.outer80 ]
  %.061.ph81100 = phi i32 [ %.061.ph105, %.lr.ph.lr.ph ], [ %.3, %.outer80 ]
  %9 = sext i32 %.059.ph82101 to i64
  br label %10

10:                                               ; preds = %.lr.ph, %15
  %indvars.iv = phi i64 [ %9, %.lr.ph ], [ %indvars.iv.next, %15 ]
  %11 = getelementptr inbounds %struct.ossl_property_definition_st, ptr %3, i64 %indvars.iv
  %12 = getelementptr inbounds nuw i8, ptr %11, i64 8
  %13 = load i32, ptr %12, align 8, !tbaa !11
  %14 = icmp eq i32 %13, 2
  br i1 %14, label %15, label %17

15:                                               ; preds = %10
  %indvars.iv.next = add nsw i64 %indvars.iv, 1
  %16 = icmp slt i64 %indvars.iv.next, %7
  br i1 %16, label %10, label %.thread, !llvm.loop !27

17:                                               ; preds = %10
  %18 = trunc nsw i64 %indvars.iv to i32
  %19 = load i32, ptr %1, align 8, !tbaa !25
  %20 = sext i32 %19 to i64
  %21 = icmp slt i64 %indvars.iv125, %20
  br i1 %21, label %22, label %49

22:                                               ; preds = %17
  %23 = load i32, ptr %11, align 8, !tbaa !14
  %24 = load i32, ptr %8, align 8, !tbaa !14
  %25 = icmp sgt i32 %23, %24
  br i1 %25, label %.outer.backedge, label %27

.outer.backedge:                                  ; preds = %22, %47
  %.061.ph.be = phi i32 [ %.162, %47 ], [ %.061.ph81100, %22 ]
  %.059.ph.be = phi i32 [ %48, %47 ], [ %18, %22 ]
  %indvars.iv.next126 = add nuw nsw i64 %indvars.iv125, 1
  %26 = icmp slt i32 %.059.ph.be, %5
  br i1 %26, label %.lr.ph.lr.ph, label %.thread, !llvm.loop !27

27:                                               ; preds = %22
  %28 = icmp eq i32 %23, %24
  br i1 %28, label %29, label %49

29:                                               ; preds = %27
  %30 = getelementptr inbounds nuw i8, ptr %11, i64 4
  %31 = load i32, ptr %30, align 4, !tbaa !15
  %32 = getelementptr inbounds nuw i8, ptr %8, i64 4
  %33 = load i32, ptr %32, align 4, !tbaa !15
  %34 = icmp eq i32 %31, %33
  br i1 %34, label %35, label %40

35:                                               ; preds = %29
  %36 = getelementptr inbounds nuw i8, ptr %11, i64 16
  %37 = getelementptr inbounds nuw i8, ptr %8, i64 16
  %bcmp = tail call i32 @bcmp(ptr noundef nonnull dereferenceable(8) %36, ptr noundef nonnull dereferenceable(8) %37, i64 8)
  %38 = icmp ne i32 %bcmp, 0
  %39 = zext i1 %38 to i32
  br label %40

40:                                               ; preds = %35, %29
  %not. = phi i32 [ 1, %29 ], [ %39, %35 ]
  %or.cond75.not = icmp eq i32 %13, %not.
  br i1 %or.cond75.not, label %41, label %43

41:                                               ; preds = %40
  %42 = add nsw i32 %.061.ph81100, 1
  br label %47

43:                                               ; preds = %40
  %44 = getelementptr inbounds nuw i8, ptr %11, i64 12
  %45 = load i8, ptr %44, align 4
  %46 = and i8 %45, 1
  %.not74 = icmp eq i8 %46, 0
  br i1 %.not74, label %.thread, label %47

47:                                               ; preds = %41, %43
  %.162 = phi i32 [ %42, %41 ], [ %.061.ph81100, %43 ]
  %48 = add nsw i32 %18, 1
  br label %.outer.backedge

49:                                               ; preds = %27, %17
  %50 = getelementptr inbounds nuw i8, ptr %11, i64 4
  %51 = load i32, ptr %50, align 4, !tbaa !15
  switch i32 %51, label %68 [
    i32 2, label %52
    i32 0, label %60
  ]

52:                                               ; preds = %49
  %53 = icmp eq i32 %13, 1
  br i1 %53, label %54, label %56

54:                                               ; preds = %52
  %55 = add nsw i32 %.061.ph81100, 1
  br label %.outer80

56:                                               ; preds = %52
  %57 = getelementptr inbounds nuw i8, ptr %11, i64 12
  %58 = load i8, ptr %57, align 4
  %59 = and i8 %58, 1
  %.not72 = icmp eq i8 %59, 0
  br i1 %.not72, label %.thread, label %.outer80

60:                                               ; preds = %49
  switch i32 %13, label %72 [
    i32 0, label %61
    i32 1, label %64
  ]

61:                                               ; preds = %60
  %62 = getelementptr inbounds nuw i8, ptr %11, i64 16
  %63 = load i32, ptr %62, align 8, !tbaa !3
  %.not70 = icmp eq i32 %63, 2
  br i1 %.not70, label %72, label %68

64:                                               ; preds = %60
  %65 = getelementptr inbounds nuw i8, ptr %11, i64 16
  %66 = load i32, ptr %65, align 8, !tbaa !3
  %67 = icmp eq i32 %66, 2
  br i1 %67, label %68, label %72

68:                                               ; preds = %49, %64, %61
  %69 = getelementptr inbounds nuw i8, ptr %11, i64 12
  %70 = load i8, ptr %69, align 4
  %71 = and i8 %70, 1
  %.not71 = icmp eq i8 %71, 0
  br i1 %.not71, label %.thread, label %.outer80

72:                                               ; preds = %61, %60, %64
  %73 = add nsw i32 %.061.ph81100, 1
  br label %.outer80

.outer80:                                         ; preds = %72, %68, %54, %56
  %.3 = phi i32 [ %55, %54 ], [ %.061.ph81100, %56 ], [ %.061.ph81100, %68 ], [ %73, %72 ]
  %74 = add nsw i32 %18, 1
  %75 = icmp slt i32 %74, %5
  br i1 %75, label %.lr.ph, label %.thread, !llvm.loop !27

.thread:                                          ; preds = %43, %.outer.backedge, %.outer80, %68, %56, %15, %2
  %.2 = phi i32 [ 0, %2 ], [ %.061.ph81100, %15 ], [ %.3, %.outer80 ], [ -1, %68 ], [ -1, %56 ], [ %.061.ph.be, %.outer.backedge ], [ -1, %43 ]
  ret i32 %.2
}